target datalayout = "e-m:e-p270:32:32-p271:32:32-p272:64:64-i64:64-i128:128-f80:128-n8:16:32:64-S128"
target triple = "x86_64-pc-linux-gnu"

@proto_register_gmhdr.ett = internal global [2 x ptr] [ptr @ett_gmhdr, ptr @ett_srcport], align 16
@proto_register_gmhdr.gmtrailer_ett = internal global [1 x ptr] [ptr @ett_gmtrailer], align 8
@.str.48 = private unnamed_addr constant [15 x i8] c"Gigamon Header\00", align 1
@.str.49 = private unnamed_addr constant [6 x i8] c"GMHDR\00", align 1
@.str.50 = private unnamed_addr constant [6 x i8] c"gmhdr\00", align 1
@proto_gmhdr = internal global i32 0, align 4
@gmhdr_handle = internal global ptr null, align 8
@.str.51 = private unnamed_addr constant [16 x i8] c"Gigamon Trailer\00", align 1
@.str.52 = private unnamed_addr constant [10 x i8] c"GMTRAILER\00", align 1
@.str.53 = private unnamed_addr constant [10 x i8] c"gmtrailer\00", align 1
@proto_gmtrailer = internal global i32 0, align 4
@.str.54 = private unnamed_addr constant [16 x i8] c"summary_in_tree\00", align 1
@.str.55 = private unnamed_addr constant [45 x i8] c"Show Gigamon header summary in protocol tree\00", align 1
@.str.56 = private unnamed_addr constant [77 x i8] c"Whether the Gigamon header summary line should be shown in the protocol tree\00", align 1
@gmhdr_summary_in_tree = internal global i8 1, align 1
@.str.57 = private unnamed_addr constant [46 x i8] c"Show Gigamon Trailer summary in protocol tree\00", align 1
@.str.58 = private unnamed_addr constant [78 x i8] c"Whether the Gigamon Trailer summary line should be shown in the protocol tree\00", align 1
@gmtrailer_summary_in_tree = internal global i8 1, align 1
@.str.59 = private unnamed_addr constant [25 x i8] c"decode_trailer_timestamp\00", align 1
@.str.60 = private unnamed_addr constant [53 x i8] c"Decode Gigamon HW timestamp and source id in trailer\00", align 1
@.str.61 = private unnamed_addr constant [98 x i8] c"Whether the Gigamon trailer containing HW timestamp, source id and original CRC should be decoded\00", align 1
@gmhdr_decode_timestamp_trailer = internal global i8 1, align 1

; Function Attrs: null_pointer_is_valid sspstrong uwtable
define hidden void @proto_register_gmhdr() #0 {
  %1 = alloca ptr, align 8
  %2 = alloca ptr, align 8
  %3 = alloca ptr, align 8
  call void @llvm.lifetime.start.p0(i64 8, ptr %1) #5
  call void @llvm.lifetime.start.p0(i64 8, ptr %2) #5
  call void @llvm.lifetime.start.p0(i64 8, ptr %3) #5
  %4 = call i32 @proto_register_protocol(ptr noundef @.str.48, ptr noundef @.str.49, ptr noundef @.str.50)
  store i32 %4, ptr @proto_gmhdr, align 4
  %5 = load i32, ptr @proto_gmhdr, align 4
  call void @proto_register_field_array(i32 noundef %5, ptr noundef @proto_register_gmhdr.hf, i32 noundef 18)
  call void @proto_register_subtree_array(ptr noundef @proto_register_gmhdr.ett, i32 noundef 2)
  %6 = load i32, ptr @proto_gmhdr, align 4
  %7 = call ptr @expert_register_protocol(i32 noundef %6)
  store ptr %7, ptr %3, align 8
  %8 = load ptr, ptr %3, align 8
  call void @expert_register_field_array(ptr noundef %8, ptr noundef @proto_register_gmhdr.ei, i32 noundef 2)
  %9 = load i32, ptr @proto_gmhdr, align 4
  %10 = call ptr @register_dissector(ptr noundef @.str.50, ptr noundef @dissect_gmhdr, i32 noundef %9)
  store ptr %10, ptr @gmhdr_handle, align 8
  %11 = call i32 @proto_register_protocol(ptr noundef @.str.51, ptr noundef @.str.52, ptr noundef @.str.53)
  store i32 %11, ptr @proto_gmtrailer, align 4
  %12 = load i32, ptr @proto_gmtrailer, align 4
  call void @proto_register_field_array(i32 noundef %12, ptr noundef @proto_register_gmhdr.gmtrailer_hf, i32 noundef 3)
  call void @proto_register_subtree_array(ptr noundef @proto_register_gmhdr.gmtrailer_ett, i32 noundef 1)
  %13 = load i32, ptr @proto_gmhdr, align 4
  %14 = call ptr @prefs_register_protocol(i32 noundef %13, ptr noundef null)
  store ptr %14, ptr %1, align 8
  %15 = load ptr, ptr %1, align 8
  call void @prefs_register_bool_preference(ptr noundef %15, ptr noundef @.str.54, ptr noundef @.str.55, ptr noundef @.str.56, ptr noundef @gmhdr_summary_in_tree)
  %16 = load i32, ptr @proto_gmtrailer, align 4
  %17 = call ptr @prefs_register_protocol(i32 noundef %16, ptr noundef null)
  store ptr %17, ptr %2, align 8
  %18 = load ptr, ptr %2, align 8
  call void @prefs_register_bool_preference(ptr noundef %18, ptr noundef @.str.54, ptr noundef @.str.57, ptr noundef @.str.58, ptr noundef @gmtrailer_summary_in_tree)
  %19 = load ptr, ptr %2, align 8
  call void @prefs_register_bool_preference(ptr noundef %19, ptr noundef @.str.59, ptr noundef @.str.60, ptr noundef @.str.61, ptr noundef @gmhdr_decode_timestamp_trailer)
  call void @llvm.lifetime.end.p0(i64 8, ptr %3) #5
  call void @llvm.lifetime.end.p0(i64 8, ptr %2) #5
  call void @llvm.lifetime.end.p0(i64 8, ptr %1) #5
  ret void
}