; Function Attrs: null_pointer_is_valid sspstrong uwtable
define hidden void @proto_register_gmhdr() local_unnamed_addr #0 {
  %1 = tail call i32 @proto_register_protocol(ptr noundef nonnull @.str.48, ptr noundef nonnull @.str.49, ptr noundef nonnull @.str.50)
  store i32 %1, ptr @proto_gmhdr, align 4
  tail call void @proto_register_field_array(i32 noundef %1, ptr noundef nonnull @proto_register_gmhdr.hf, i32 noundef 18)
  tail call void @proto_register_subtree_array(ptr noundef nonnull @proto_register_gmhdr.ett, i32 noundef 2)
  %2 = load i32, ptr @proto_gmhdr, align 4
  %3 = tail call ptr @expert_register_protocol(i32 noundef %2)
  tail call void @expert_register_field_array(ptr noundef %3, ptr noundef nonnull @proto_register_gmhdr.ei, i32 noundef 2)
  %4 = load i32, ptr @proto_gmhdr, align 4
  %5 = tail call ptr @register_dissector(ptr noundef nonnull @.str.50, ptr noundef nonnull @dissect_gmhdr, i32 noundef %4)
  store ptr %5, ptr @gmhdr_handle, align 8
  %6 = tail call i32 @proto_register_protocol(ptr noundef nonnull @.str.51, ptr noundef nonnull @.str.52, ptr noundef nonnull @.str.53)
  store i32 %6, ptr @proto_gmtrailer, align 4
  tail call void @proto_register_field_array(i32 noundef %6, ptr noundef nonnull @proto_register_gmhdr.gmtrailer_hf, i32 noundef 3)
  tail call void @proto_register_subtree_array(ptr noundef nonnull @proto_register_gmhdr.gmtrailer_ett, i32 noundef 1)
  %7 = load i32, ptr @proto_gmhdr, align 4
  %8 = tail call ptr @prefs_register_protocol(i32 noundef %7, ptr noundef null)
  tail call void @prefs_register_bool_preference(ptr noundef %8, ptr noundef nonnull @.str.54, ptr noundef nonnull @.str.55, ptr noundef nonnull @.str.56, ptr noundef nonnull @gmhdr_summary_in_tree)
  %9 = load i32, ptr @proto_gmtrailer, align 4
  %10 = tail call ptr @prefs_register_protocol(i32 noundef %9, ptr noundef null)
  tail call void @prefs_register_bool_preference(ptr noundef %10, ptr noundef nonnull @.str.54, ptr noundef nonnull @.str.57, ptr noundef nonnull @.str.58, ptr noundef nonnull @gmtrailer_summary_in_tree)
  tail call void @prefs_register_bool_preference(ptr noundef %10, ptr noundef nonnull @.str.59, ptr noundef nonnull @.str.60, ptr noundef nonnull @.str.61, ptr noundef nonnull @gmhdr_decode_timestamp_trailer)
  ret void
}